; Function Attrs: null_pointer_is_valid sspstrong uwtable
define internal void @dtap_bs_challenge(ptr noundef %0, ptr noundef %1, ptr noundef %2, i32 noundef %3, i32 noundef %4, ptr noundef %5) #1 {
  %7 = getelementptr inbounds nuw i8, ptr %5, i64 25
  %8 = load i8, ptr %7, align 1, !range !19, !noundef !20
  %9 = trunc nuw i8 %8 to i1
  br i1 %9, label %10, label %12

10:                                               ; preds = %6
  %11 = tail call fastcc zeroext i16 @elem_tlv(ptr noundef %0, ptr noundef %1, ptr noundef %2, i32 noundef 5, i32 noundef %3, ptr noundef nonnull @.str.282, ptr noundef %5)
  br label %14

12:                                               ; preds = %6
  %13 = tail call fastcc zeroext i16 @elem_lv(ptr noundef %0, ptr noundef %1, ptr noundef %2, i32 noundef 5, i32 noundef %3, ptr noundef %5)
  br label %14

14:                                               ; preds = %12, %10
  %.in = phi i16 [ %11, %10 ], [ %13, %12 ]
  %15 = zext i16 %.in to i32
  %16 = icmp eq i32 %4, %15
  br i1 %16, label %21, label %17

17:                                               ; preds = %14
  %18 = sub i32 %4, %15
  %19 = add i32 %3, %15
  %20 = tail call ptr @proto_tree_add_expert(ptr noundef %2, ptr noundef %1, ptr noundef nonnull @ei_ansi_a_extraneous_data, ptr noundef %0, i32 noundef %19, i32 noundef %18)
  br label %21

21:                                               ; preds = %14, %17
  ret void
}